; Function Attrs: mustprogress uwtable
define noundef i64 @_ZNK7rocksdb5Block22ApproximateMemoryUsageEv(ptr noundef nonnull align 8 dereferenceable(84) %this) local_unnamed_addr #1 align 2 {
entry:
  %add.ptr.i.i.i.i.i.i.i = getelementptr inbounds i8, ptr %this, i64 24
  %0 = load ptr, ptr %add.ptr.i.i.i.i.i.i.i, align 8
  %cmp.not.i.i = icmp eq ptr %0, null
  br i1 %cmp.not.i.i, label %_ZNK7rocksdb5Block11usable_sizeEv.exit, label %if.then.i.i

if.then.i.i:                                      ; preds = %entry
  %allocation.i.i = getelementptr inbounds i8, ptr %this, i64 16
  %1 = load ptr, ptr %allocation.i.i, align 8
  %tobool.not.i.i = icmp eq ptr %1, null
  br i1 %tobool.not.i.i, label %if.end.i.i, label %if.then5.i.i

if.then5.i.i:                                     ; preds = %if.then.i.i
  %size_.i.i.i = getelementptr inbounds i8, ptr %this, i64 8
  %2 = load i64, ptr %size_.i.i.i, align 8
  %vtable.i.i = load ptr, ptr %1, align 8
  %vfn.i.i = getelementptr inbounds i8, ptr %vtable.i.i, i64 168
  %3 = load ptr, ptr %vfn.i.i, align 8
  %call9.i.i = tail call noundef i64 %3(ptr noundef nonnull align 8 dereferenceable(32) %1, ptr noundef nonnull %0, i64 noundef %2)
  br label %_ZNK7rocksdb5Block11usable_sizeEv.exit

if.end.i.i:                                       ; preds = %if.then.i.i
  %call12.i.i = tail call i64 @malloc_usable_size(ptr noundef nonnull %0) #15
  br label %_ZNK7rocksdb5Block11usable_sizeEv.exit

_ZNK7rocksdb5Block11usable_sizeEv.exit:           ; preds = %entry, %if.then5.i.i, %if.end.i.i
  %retval.0.i.i = phi i64 [ %call9.i.i, %if.then5.i.i ], [ %call12.i.i, %if.end.i.i ], [ 0, %entry ]
  %call2 = tail call i64 @malloc_usable_size(ptr noundef nonnull %this) #15
  %add = add i64 %call2, %retval.0.i.i
  %read_amp_bitmap_ = getelementptr inbounds i8, ptr %this, i64 56
  %4 = load ptr, ptr %read_amp_bitmap_, align 8
  %cmp.i.not = icmp eq ptr %4, null
  br i1 %cmp.i.not, label %if.end, label %if.then

if.then:                                          ; preds = %_ZNK7rocksdb5Block11usable_sizeEv.exit
  %call.i = tail call noundef i64 @malloc_usable_size(ptr noundef nonnull %4) #15
  %add7 = add i64 %call.i, %add
  br label %if.end

if.end:                                           ; preds = %if.then, %_ZNK7rocksdb5Block11usable_sizeEv.exit
  %usage.0 = phi i64 [ %add7, %if.then ], [ %add, %_ZNK7rocksdb5Block11usable_sizeEv.exit ]
  %checksum_size_ = getelementptr inbounds i8, ptr %this, i64 72
  %5 = load i32, ptr %checksum_size_, align 8
  %conv = zext i32 %5 to i64
  %add8 = add i64 %usage.0, %conv
  ret i64 %add8
}